; Function Attrs: mustprogress uwtable
define noundef i64 @_ZN5faiss14VectorIOWriterclEPKvmm(ptr noundef nonnull align 8 dereferenceable(64) %0, ptr nocapture noundef readonly %1, i64 noundef %2, i64 noundef returned %3) unnamed_addr #2 align 2 {
  %5 = mul i64 %3, %2
  %.not = icmp eq i64 %5, 0
  br i1 %.not, label %17, label %6

6:                                                ; preds = %4
  %7 = getelementptr inbounds i8, ptr %0, i64 40
  %8 = getelementptr inbounds i8, ptr %0, i64 48
  %9 = load ptr, ptr %8, align 8
  %10 = load ptr, ptr %7, align 8
  %11 = ptrtoint ptr %9 to i64
  %12 = ptrtoint ptr %10 to i64
  %13 = sub i64 %11, %12
  %14 = add i64 %13, %5
  tail call void @_ZNSt6vectorIhSaIhEE6resizeEm(ptr noundef nonnull align 8 dereferenceable(24) %7, i64 noundef %14)
  %15 = load ptr, ptr %7, align 8
  %16 = getelementptr inbounds i8, ptr %15, i64 %13
  tail call void @llvm.memcpy.p0.p0.i64(ptr nonnull align 1 %16, ptr align 1 %1, i64 %5, i1 false)
  br label %17

17:                                               ; preds = %6, %4
  ret i64 %3
}